target datalayout = "e-m:e-p270:32:32-p271:32:32-p272:64:64-i64:64-i128:128-f80:128-n8:16:32:64-S128"
target triple = "x86_64-pc-linux-gnu"

%struct.AVFormatContext = type { ptr, ptr, ptr, ptr, ptr, i32, i32, ptr, i32, ptr, i32, ptr, ptr, i64, i64, i64, i32, i32, i32, i64, i64, ptr, i32, i32, ptr, i32, i32, i32, i32, ptr, i64, i32, i32, %struct.AVIOInterruptCB, i32, i32, i32, i32, i64, i32, i32, i32, i32, i32, i32, i32, i32, i32, i32, i32, i32, i64, i32, i32, i32, i32, i32, ptr, ptr, ptr, ptr, i32, ptr, ptr, ptr, ptr, i32, ptr, ptr, i64, ptr, ptr, ptr, i64 }
%struct.AVIOInterruptCB = type { ptr, ptr }

@.str.3 = private unnamed_addr constant [58 x i8] c"Filesize %ld invalid for APM, output file will be broken\0A\00", align 1

; Function Attrs: alwaysinline nounwind uwtable
define internal i64 @avio_tell(ptr noundef %0) #5 {
  %2 = alloca ptr, align 8
  store ptr %0, ptr %2, align 8, !tbaa !86
  %3 = load ptr, ptr %2, align 8, !tbaa !86
  %4 = call i64 @avio_seek(ptr noundef %3, i64 noundef 0, i32 noundef 1)
  ret i64 %4
}

; Function Attrs: nounwind uwtable
define internal i32 @apm_write_trailer(ptr noundef %0) #0 {
  %2 = alloca i32, align 4
  %3 = alloca ptr, align 8
  %4 = alloca i64, align 8
  %5 = alloca i64, align 8
  %6 = alloca i32, align 4
  store ptr %0, ptr %3, align 8, !tbaa !15
  call void @llvm.lifetime.start.p0(i64 8, ptr %4) #6
  call void @llvm.lifetime.start.p0(i64 8, ptr %5) #6
  %7 = load ptr, ptr %3, align 8, !tbaa !15
  %8 = getelementptr inbounds nuw %struct.AVFormatContext, ptr %7, i32 0, i32 4
  %9 = load ptr, ptr %8, align 8, !tbaa !19
  %10 = call i64 @avio_tell(ptr noundef %9)
  store i64 %10, ptr %4, align 8, !tbaa !46
  %11 = load i64, ptr %4, align 8, !tbaa !46
  %12 = sub nsw i64 %11, 100
  store i64 %12, ptr %5, align 8, !tbaa !46
  %13 = load i64, ptr %4, align 8, !tbaa !46
  %14 = icmp sge i64 %13, 4294967295
  br i1 %14, label %15, label %18

15:                                               ; preds = %1
  %16 = load ptr, ptr %3, align 8, !tbaa !15
  %17 = load i64, ptr %4, align 8, !tbaa !46
  call void (ptr, i32, ptr, ...) @av_log(ptr noundef %16, i32 noundef 16, ptr noundef @.str.3, i64 noundef %17)
  store i32 -34, ptr %2, align 4
  store i32 1, ptr %6, align 4
  br label %33

18:                                               ; preds = %1
  %19 = load ptr, ptr %3, align 8, !tbaa !15
  %20 = getelementptr inbounds nuw %struct.AVFormatContext, ptr %19, i32 0, i32 4
  %21 = load ptr, ptr %20, align 8, !tbaa !19
  %22 = call i64 @avio_seek(ptr noundef %21, i64 noundef 24, i32 noundef 0)
  %23 = load ptr, ptr %3, align 8, !tbaa !15
  %24 = getelementptr inbounds nuw %struct.AVFormatContext, ptr %23, i32 0, i32 4
  %25 = load ptr, ptr %24, align 8, !tbaa !19
  %26 = load i64, ptr %4, align 8, !tbaa !46
  %27 = trunc i64 %26 to i32
  call void @avio_wl32(ptr noundef %25, i32 noundef %27)
  %28 = load ptr, ptr %3, align 8, !tbaa !15
  %29 = getelementptr inbounds nuw %struct.AVFormatContext, ptr %28, i32 0, i32 4
  %30 = load ptr, ptr %29, align 8, !tbaa !19
  %31 = load i64, ptr %5, align 8, !tbaa !46
  %32 = trunc i64 %31 to i32
  call void @avio_wl32(ptr noundef %30, i32 noundef %32)
  store i32 0, ptr %2, align 4
  store i32 1, ptr %6, align 4
  br label %33

33:                                               ; preds = %18, %15
  call void @llvm.lifetime.end.p0(i64 8, ptr %5) #6
  call void @llvm.lifetime.end.p0(i64 8, ptr %4) #6
  %34 = load i32, ptr %2, align 4
  ret i32 %34
}