; Function Attrs: nounwind uwtable
define internal range(i32 -34, 1) i32 @apm_write_trailer(ptr noundef %0) #1 {
  %2 = getelementptr inbounds nuw i8, ptr %0, i64 32
  %3 = load ptr, ptr %2, align 8, !tbaa !13
  %4 = tail call i64 @avio_seek(ptr noundef %3, i64 noundef 0, i32 noundef 1) #7
  %5 = icmp sgt i64 %4, 4294967294
  br i1 %5, label %6, label %7

6:                                                ; preds = %1
  tail call void (ptr, i32, ptr, ...) @av_log(ptr noundef nonnull %0, i32 noundef 16, ptr noundef nonnull @.str.3, i64 noundef %4) #7
  br label %14

7:                                                ; preds = %1
  %8 = load ptr, ptr %2, align 8, !tbaa !13
  %9 = tail call i64 @avio_seek(ptr noundef %8, i64 noundef 24, i32 noundef 0) #7
  %10 = load ptr, ptr %2, align 8, !tbaa !13
  %11 = trunc i64 %4 to i32
  tail call void @avio_wl32(ptr noundef %10, i32 noundef %11) #7
  %12 = load ptr, ptr %2, align 8, !tbaa !13
  %13 = add i32 %11, -100
  tail call void @avio_wl32(ptr noundef %12, i32 noundef %13) #7
  br label %14

14:                                               ; preds = %7, %6
  %.0 = phi i32 [ -34, %6 ], [ 0, %7 ]
  ret i32 %.0
}